; Function Attrs: nounwind uwtable
define ptr @l_ExceptT_instMonad___rarg___lambda__6(ptr noundef %0, ptr noundef %1, ptr noundef %2) #0 {
  %4 = tail call ptr @lean_apply_1(ptr noundef %0, ptr noundef nonnull inttoptr (i64 1 to ptr)) #5
  %5 = ptrtoint ptr %1 to i64
  %6 = and i64 %5, 1
  %.not = icmp eq i64 %6, 0
  br i1 %.not, label %7, label %lean_inc.exit19

7:                                                ; preds = %3
  %.val.i = load i32, ptr %1, align 4, !tbaa !4
  %8 = icmp sgt i32 %.val.i, 0
  br i1 %8, label %9, label %11, !prof !13

9:                                                ; preds = %7
  %10 = add nuw i32 %.val.i, 1
  store i32 %10, ptr %1, align 4, !tbaa !4
  br label %lean_inc.exit19

11:                                               ; preds = %7
  %.not.i = icmp eq i32 %.val.i, 0
  br i1 %.not.i, label %lean_inc.exit19, label %12

12:                                               ; preds = %11
  tail call void @lean_inc_ref_cold(ptr noundef nonnull %1) #5
  br label %lean_inc.exit19

lean_inc.exit19:                                  ; preds = %12, %11, %9, %3
  tail call void @lean_inc_heartbeat() #5
  %13 = tail call noalias ptr @mi_malloc_small(i64 noundef 40) #5
  %14 = icmp eq ptr %13, null
  br i1 %14, label %15, label %lean_alloc_closure.exit

15:                                               ; preds = %lean_inc.exit19
  tail call void @lean_internal_panic_out_of_memory() #6
  unreachable

lean_alloc_closure.exit:                          ; preds = %lean_inc.exit19
  %16 = getelementptr inbounds nuw i8, ptr %13, i64 4
  store i32 1, ptr %13, align 4, !tbaa !4
  store i32 -184549336, ptr %16, align 4
  %17 = getelementptr inbounds nuw i8, ptr %13, i64 8
  store ptr @l_ExceptT_instMonad___rarg___lambda__5___boxed, ptr %17, align 8, !tbaa !9
  %18 = getelementptr inbounds nuw i8, ptr %13, i64 16
  store i16 3, ptr %18, align 8, !tbaa !11
  %19 = getelementptr inbounds nuw i8, ptr %13, i64 18
  store i16 2, ptr %19, align 2, !tbaa !11
  %20 = getelementptr inbounds nuw i8, ptr %13, i64 24
  store ptr %1, ptr %20, align 8, !tbaa !9
  %21 = getelementptr inbounds nuw i8, ptr %13, i64 32
  store ptr %2, ptr %21, align 8, !tbaa !9
  %22 = getelementptr inbounds nuw i8, ptr %1, i64 16
  %23 = load ptr, ptr %22, align 8, !tbaa !9
  %24 = ptrtoint ptr %23 to i64
  %25 = and i64 %24, 1
  %.not24 = icmp eq i64 %25, 0
  br i1 %.not24, label %26, label %lean_inc.exit

26:                                               ; preds = %lean_alloc_closure.exit
  %.val.i20 = load i32, ptr %23, align 4, !tbaa !4
  %27 = icmp sgt i32 %.val.i20, 0
  br i1 %27, label %28, label %30, !prof !13

28:                                               ; preds = %26
  %29 = add nuw i32 %.val.i20, 1
  store i32 %29, ptr %23, align 4, !tbaa !4
  br label %lean_inc.exit

30:                                               ; preds = %26
  %.not.i21 = icmp eq i32 %.val.i20, 0
  br i1 %.not.i21, label %lean_inc.exit, label %31

31:                                               ; preds = %30
  tail call void @lean_inc_ref_cold(ptr noundef nonnull %23) #5
  br label %lean_inc.exit

lean_inc.exit:                                    ; preds = %31, %30, %28, %lean_alloc_closure.exit
  tail call void @lean_inc_heartbeat() #5
  %32 = tail call noalias ptr @mi_malloc_small(i64 noundef 56) #5
  %33 = icmp eq ptr %32, null
  br i1 %33, label %34, label %lean_alloc_closure.exit23

34:                                               ; preds = %lean_inc.exit
  tail call void @lean_internal_panic_out_of_memory() #6
  unreachable

lean_alloc_closure.exit23:                        ; preds = %lean_inc.exit
  %35 = getelementptr inbounds nuw i8, ptr %32, i64 4
  store i32 1, ptr %32, align 4, !tbaa !4
  store i32 -184549320, ptr %35, align 4
  %36 = getelementptr inbounds nuw i8, ptr %32, i64 8
  store ptr @l_ExceptT_bindCont___at_ExceptT_instMonad___spec__2___rarg, ptr %36, align 8, !tbaa !9
  %37 = getelementptr inbounds nuw i8, ptr %32, i64 16
  store i16 5, ptr %37, align 8, !tbaa !11
  %38 = getelementptr inbounds nuw i8, ptr %32, i64 18
  store i16 4, ptr %38, align 2, !tbaa !11
  %39 = getelementptr inbounds nuw i8, ptr %32, i64 24
  store ptr %1, ptr %39, align 8, !tbaa !9
  %40 = getelementptr inbounds nuw i8, ptr %32, i64 32
  store ptr inttoptr (i64 1 to ptr), ptr %40, align 8, !tbaa !9
  %41 = getelementptr inbounds nuw i8, ptr %32, i64 40
  store ptr inttoptr (i64 1 to ptr), ptr %41, align 8, !tbaa !9
  %42 = getelementptr inbounds nuw i8, ptr %32, i64 48
  store ptr %13, ptr %42, align 8, !tbaa !9
  %43 = tail call ptr @lean_apply_4(ptr noundef %23, ptr noundef nonnull inttoptr (i64 1 to ptr), ptr noundef nonnull inttoptr (i64 1 to ptr), ptr noundef %4, ptr noundef nonnull %32) #5
  ret ptr %43
}